(dp1
S'douban_doulistid'
p2
(dp3
S'type'
p4
S'string'
p5
sS'sortable'
p6
I2
sS'sql'
p7
S'CHAR(512)'
p8
ssS'douban_api'
p9
(dp10
g4
g5
sg6
I6
sg7
S'CHAR(512)'
p11
ssS'douban_bookid'
p12
(dp13
g4
g5
sg6
I3
sg7
S'CHAR(512)'
p14
ssS'douban_image'
p15
(dp16
g4
g5
sg6
I5
sg7
S'CHAR(512)'
p17
ssS'douban_title'
p18
(dp19
g4
g5
sg6
I4
sg7
S'CHAR(512)'
p20
ssS'id'
p21
(dp22
g4
g21
sg6
I1
sg7
S'INTEGER PRIMARY KEY AUTOINCREMENT'
p23
ss.